target datalayout = "e-m:e-p270:32:32-p271:32:32-p272:64:64-i64:64-i128:128-f80:128-n8:16:32:64-S128"
target triple = "x86_64-pc-linux-gnu"

%struct._value_string = type { i32, ptr }
%struct._packet_info = type { ptr, ptr, i32, i32, %struct.nstime_t, %struct.nstime_t, %struct.nstime_t, i8, ptr, ptr, ptr, ptr, %struct._address, %struct._address, %struct._address, %struct._address, %struct._address, %struct._address, i32, ptr, i8, [3 x i8], %struct.anon, i32, i32, i32, i32, ptr, i8, ptr, ptr, i16, i16, i32, i32, i16, i32, i32, ptr, ptr, ptr, i8, i8, i16, i16, i16, i32, i16, i16, ptr, ptr, ptr, ptr, ptr, i32, i32 }
%struct.nstime_t = type { i64, i32 }
%struct._address = type { i32, i32, ptr, ptr }
%struct.anon = type { i8, [3 x i8] }

@hf_cba_acco_count = internal global i32 0, align 4
@hf_cba_acco_conn_cons_id = internal global i32 0, align 4
@dcom_hresult_vals = external constant [0 x %struct._value_string], align 8
@.str.259 = private unnamed_addr constant [17 x i8] c"Unknown (0x%08x)\00", align 1
@.str.260 = private unnamed_addr constant [9 x i8] c": Cnt=%u\00", align 1
@.str.261 = private unnamed_addr constant [7 x i8] c" -> %s\00", align 1
@.str.264 = private unnamed_addr constant [17 x i8] c": Cnt=%u ConsID=\00", align 1
@.str.266 = private unnamed_addr constant [5 x i8] c"0x%x\00", align 1
@.str.267 = private unnamed_addr constant [6 x i8] c",0x%x\00", align 1
@.str.268 = private unnamed_addr constant [5 x i8] c",...\00", align 1

; Function Attrs: null_pointer_is_valid sspstrong uwtable
define internal i32 @dissect_ICBAAccoMgt2_GetConsIDs_resp(ptr noundef %0, i32 noundef %1, ptr noundef %2, ptr noundef %3, ptr noundef %4, ptr noundef %5) #0 {
  %7 = alloca ptr, align 8
  %8 = alloca i32, align 4
  %9 = alloca ptr, align 8
  %10 = alloca ptr, align 8
  %11 = alloca ptr, align 8
  %12 = alloca ptr, align 8
  %13 = alloca i32, align 4
  %14 = alloca i32, align 4
  %15 = alloca i32, align 4
  %16 = alloca i32, align 4
  %17 = alloca i32, align 4
  %18 = alloca i32, align 4
  store ptr %0, ptr %7, align 8
  store i32 %1, ptr %8, align 4
  store ptr %2, ptr %9, align 8
  store ptr %3, ptr %10, align 8
  store ptr %4, ptr %11, align 8
  store ptr %5, ptr %12, align 8
  call void @llvm.lifetime.start.p0(i64 4, ptr %13) #12
  call void @llvm.lifetime.start.p0(i64 4, ptr %14) #12
  call void @llvm.lifetime.start.p0(i64 4, ptr %15) #12
  call void @llvm.lifetime.start.p0(i64 4, ptr %16) #12
  call void @llvm.lifetime.start.p0(i64 4, ptr %17) #12
  call void @llvm.lifetime.start.p0(i64 4, ptr %18) #12
  %19 = load ptr, ptr %7, align 8
  %20 = load i32, ptr %8, align 4
  %21 = load ptr, ptr %9, align 8
  %22 = load ptr, ptr %10, align 8
  %23 = load ptr, ptr %11, align 8
  %24 = load ptr, ptr %12, align 8
  %25 = call i32 @dissect_dcom_that(ptr noundef %19, i32 noundef %20, ptr noundef %21, ptr noundef %22, ptr noundef %23, ptr noundef %24)
  store i32 %25, ptr %8, align 4
  %26 = load ptr, ptr %7, align 8
  %27 = load i32, ptr %8, align 4
  %28 = load ptr, ptr %9, align 8
  %29 = load ptr, ptr %10, align 8
  %30 = load ptr, ptr %11, align 8
  %31 = load ptr, ptr %12, align 8
  %32 = load i32, ptr @hf_cba_acco_count, align 4
  %33 = call i32 @dissect_ndr_uint32(ptr noundef %26, i32 noundef %27, ptr noundef %28, ptr noundef %29, ptr noundef %30, ptr noundef %31, i32 noundef %32, ptr noundef %13)
  store i32 %33, ptr %8, align 4
  %34 = load i32, ptr %13, align 4
  %35 = icmp ne i32 %34, 0
  br i1 %35, label %36, label %41

36:                                               ; preds = %6
  %37 = load ptr, ptr %9, align 8
  %38 = getelementptr inbounds nuw %struct._packet_info, ptr %37, i32 0, i32 1
  %39 = load ptr, ptr %38, align 8
  %40 = load i32, ptr %13, align 4
  call void (ptr, i32, ptr, ...) @col_append_fstr(ptr noundef %39, i32 noundef 25, ptr noundef @.str.264, i32 noundef %40)
  br label %46

41:                                               ; preds = %6
  %42 = load ptr, ptr %9, align 8
  %43 = getelementptr inbounds nuw %struct._packet_info, ptr %42, i32 0, i32 1
  %44 = load ptr, ptr %43, align 8
  %45 = load i32, ptr %13, align 4
  call void (ptr, i32, ptr, ...) @col_append_fstr(ptr noundef %44, i32 noundef 25, ptr noundef @.str.260, i32 noundef %45)
  br label %46

46:                                               ; preds = %41, %36
  %47 = load ptr, ptr %7, align 8
  %48 = load i32, ptr %8, align 4
  %49 = load ptr, ptr %9, align 8
  %50 = load ptr, ptr %10, align 8
  %51 = load ptr, ptr %11, align 8
  %52 = load ptr, ptr %12, align 8
  %53 = call i32 @dissect_dcom_dcerpc_pointer(ptr noundef %47, i32 noundef %48, ptr noundef %49, ptr noundef %50, ptr noundef %51, ptr noundef %52, ptr noundef %14)
  store i32 %53, ptr %8, align 4
  %54 = load i32, ptr %14, align 4
  %55 = icmp ne i32 %54, 0
  br i1 %55, label %56, label %106

56:                                               ; preds = %46
  %57 = load ptr, ptr %7, align 8
  %58 = load i32, ptr %8, align 4
  %59 = load ptr, ptr %9, align 8
  %60 = load ptr, ptr %10, align 8
  %61 = load ptr, ptr %11, align 8
  %62 = load ptr, ptr %12, align 8
  %63 = call i32 @dissect_dcom_dcerpc_array_size(ptr noundef %57, i32 noundef %58, ptr noundef %59, ptr noundef %60, ptr noundef %61, ptr noundef %62, ptr noundef %15)
  store i32 %63, ptr %8, align 4
  store i32 1, ptr %16, align 4
  br label %64

64:                                               ; preds = %102, %56
  %65 = load i32, ptr %15, align 4
  %66 = add i32 %65, -1
  store i32 %66, ptr %15, align 4
  %67 = icmp ne i32 %65, 0
  br i1 %67, label %68, label %105

68:                                               ; preds = %64
  %69 = load ptr, ptr %7, align 8
  %70 = load i32, ptr %8, align 4
  %71 = load ptr, ptr %9, align 8
  %72 = load ptr, ptr %10, align 8
  %73 = load ptr, ptr %11, align 8
  %74 = load ptr, ptr %12, align 8
  %75 = load i32, ptr @hf_cba_acco_conn_cons_id, align 4
  %76 = load i32, ptr %16, align 4
  %77 = call i32 @dissect_dcom_indexed_DWORD(ptr noundef %69, i32 noundef %70, ptr noundef %71, ptr noundef %72, ptr noundef %73, ptr noundef %74, i32 noundef %75, ptr noundef %17, i32 noundef %76)
  store i32 %77, ptr %8, align 4
  %78 = load i32, ptr %16, align 4
  %79 = icmp eq i32 %78, 1
  br i1 %79, label %80, label %85

80:                                               ; preds = %68
  %81 = load ptr, ptr %9, align 8
  %82 = getelementptr inbounds nuw %struct._packet_info, ptr %81, i32 0, i32 1
  %83 = load ptr, ptr %82, align 8
  %84 = load i32, ptr %17, align 4
  call void (ptr, i32, ptr, ...) @col_append_fstr(ptr noundef %83, i32 noundef 25, ptr noundef @.str.266, i32 noundef %84)
  br label %102

85:                                               ; preds = %68
  %86 = load i32, ptr %16, align 4
  %87 = icmp ult i32 %86, 10
  br i1 %87, label %88, label %93

88:                                               ; preds = %85
  %89 = load ptr, ptr %9, align 8
  %90 = getelementptr inbounds nuw %struct._packet_info, ptr %89, i32 0, i32 1
  %91 = load ptr, ptr %90, align 8
  %92 = load i32, ptr %17, align 4
  call void (ptr, i32, ptr, ...) @col_append_fstr(ptr noundef %91, i32 noundef 25, ptr noundef @.str.267, i32 noundef %92)
  br label %101

93:                                               ; preds = %85
  %94 = load i32, ptr %16, align 4
  %95 = icmp eq i32 %94, 10
  br i1 %95, label %96, label %100

96:                                               ; preds = %93
  %97 = load ptr, ptr %9, align 8
  %98 = getelementptr inbounds nuw %struct._packet_info, ptr %97, i32 0, i32 1
  %99 = load ptr, ptr %98, align 8
  call void @col_append_str(ptr noundef %99, i32 noundef 25, ptr noundef @.str.268)
  br label %100

100:                                              ; preds = %96, %93
  br label %101

101:                                              ; preds = %100, %88
  br label %102

102:                                              ; preds = %101, %80
  %103 = load i32, ptr %16, align 4
  %104 = add i32 %103, 1
  store i32 %104, ptr %16, align 4
  br label %64, !llvm.loop !19

105:                                              ; preds = %64
  br label %106

106:                                              ; preds = %105, %46
  %107 = load ptr, ptr %7, align 8
  %108 = load i32, ptr %8, align 4
  %109 = load ptr, ptr %9, align 8
  %110 = load ptr, ptr %10, align 8
  %111 = load ptr, ptr %11, align 8
  %112 = load ptr, ptr %12, align 8
  %113 = call i32 @dissect_dcom_HRESULT(ptr noundef %107, i32 noundef %108, ptr noundef %109, ptr noundef %110, ptr noundef %111, ptr noundef %112, ptr noundef %18)
  store i32 %113, ptr %8, align 4
  %114 = load ptr, ptr %9, align 8
  %115 = getelementptr inbounds nuw %struct._packet_info, ptr %114, i32 0, i32 1
  %116 = load ptr, ptr %115, align 8
  %117 = load i32, ptr %18, align 4
  %118 = call ptr @val_to_str(i32 noundef %117, ptr noundef @dcom_hresult_vals, ptr noundef @.str.259)
  call void (ptr, i32, ptr, ...) @col_append_fstr(ptr noundef %116, i32 noundef 25, ptr noundef @.str.261, ptr noundef %118)
  %119 = load i32, ptr %8, align 4
  call void @llvm.lifetime.end.p0(i64 4, ptr %18) #12
  call void @llvm.lifetime.end.p0(i64 4, ptr %17) #12
  call void @llvm.lifetime.end.p0(i64 4, ptr %16) #12
  call void @llvm.lifetime.end.p0(i64 4, ptr %15) #12
  call void @llvm.lifetime.end.p0(i64 4, ptr %14) #12
  call void @llvm.lifetime.end.p0(i64 4, ptr %13) #12
  ret i32 %119
}